                              1 ;--------------------------------------------------------
                              2 ; File Created by SDCC : free open source ANSI-C Compiler
                              3 ; Version 3.9.0 #11195 (MINGW64)
                              4 ;--------------------------------------------------------
                              5 	.module Test
                              6 	.optsdcc -mz80
                              7 	
                              8 ;--------------------------------------------------------
                              9 ; Public variables in this module
                             10 ;--------------------------------------------------------
                             11 	.globl _main
                             12 	.globl _VPrintNum
                             13 	.globl _VPrintNumber
                             14 	.globl _VPrintString
                             15 	.globl _VPRINTN
                             16 	.globl _VPRINT
                             17 	.globl _GetVRAMaddressByPosition
                             18 	.globl _CopyToVRAM
                             19 	.globl _FillVRAM
                             20 	.globl _COLOR
                             21 	.globl _SCREEN
                             22 	.globl _TILESET_FONT
                             23 	.globl _text02
                             24 	.globl _text01
                             25 	.globl _inkey
                             26 	.globl _WAIT
                             27 	.globl _test_SC1
                             28 	.globl _test_SC2
                             29 	.globl _test
                             30 	.globl _TwoSeconds
                             31 ;--------------------------------------------------------
                             32 ; special function registers
                             33 ;--------------------------------------------------------
                             34 ;--------------------------------------------------------
                             35 ; ram data
                             36 ;--------------------------------------------------------
                             37 	.area _DATA
                             38 ;--------------------------------------------------------
                             39 ; ram data
                             40 ;--------------------------------------------------------
                             41 	.area _INITIALIZED
                             42 ;--------------------------------------------------------
                             43 ; absolute external ram data
                             44 ;--------------------------------------------------------
                             45 	.area _DABS (ABS)
                             46 ;--------------------------------------------------------
                             47 ; global & static initialisations
                             48 ;--------------------------------------------------------
                             49 	.area _HOME
                             50 	.area _GSINIT
                             51 	.area _GSFINAL
                             52 	.area _GSINIT
                             53 ;--------------------------------------------------------
                             54 ; Home
                             55 ;--------------------------------------------------------
                             56 	.area _HOME
                             57 	.area _HOME
                             58 ;--------------------------------------------------------
                             59 ; code
                             60 ;--------------------------------------------------------
                             61 	.area _CODE
                             62 ;src\Test.c:129: void main(void)
                             63 ;	---------------------------------
                             64 ; Function main
                             65 ; ---------------------------------
   0000                      66 _main::
                             67 ;src\Test.c:132: test_SC1();
   0000 CDr21r04      [17]   68 	call	_test_SC1
                             69 ;src\Test.c:134: test_SC2();
                             70 ;src\Test.c:147: return;
                             71 ;src\Test.c:148: }
   0003 C3r84r04      [10]   72 	jp  _test_SC2
   0006                      73 _text01:
   0006 54 65 73 74 20 56    74 	.ascii "Test VPRINT SDCC library"
        50 52 49 4E 54 20
        53 44 43 43 20 6C
        69 62 72 61 72 79
   001E 00                   75 	.db 0x00
   001F                      76 _text02:
   001F 56 44 50 5F 56 50    77 	.ascii "VDP_VPRINT Lib v1.1"
        52 49 4E 54 20 4C
        69 62 20 76 31 2E
        31
   0032 00                   78 	.db 0x00
   0033                      79 _TILESET_FONT:
   0033 00                   80 	.db #0x00	; 0
   0034 00                   81 	.db #0x00	; 0
   0035 00                   82 	.db #0x00	; 0
   0036 00                   83 	.db #0x00	; 0
   0037 00                   84 	.db #0x00	; 0
   0038 00                   85 	.db #0x00	; 0
   0039 00                   86 	.db #0x00	; 0
   003A 00                   87 	.db #0x00	; 0
   003B 00                   88 	.db #0x00	; 0
   003C 70                   89 	.db #0x70	; 112	'p'
   003D 7E                   90 	.db #0x7e	; 126
   003E 42                   91 	.db #0x42	; 66	'B'
   003F 42                   92 	.db #0x42	; 66	'B'
   0040 42                   93 	.db #0x42	; 66	'B'
   0041 7E                   94 	.db #0x7e	; 126
   0042 00                   95 	.db #0x00	; 0
   0043 78                   96 	.db #0x78	; 120	'x'
   0044 4C                   97 	.db #0x4c	; 76	'L'
   0045 4E                   98 	.db #0x4e	; 78	'N'
   0046 42                   99 	.db #0x42	; 66	'B'
   0047 42                  100 	.db #0x42	; 66	'B'
   0048 42                  101 	.db #0x42	; 66	'B'
   0049 7E                  102 	.db #0x7e	; 126
   004A 00                  103 	.db #0x00	; 0
   004B 7F                  104 	.db #0x7f	; 127
   004C 7F                  105 	.db #0x7f	; 127
   004D 7F                  106 	.db #0x7f	; 127
   004E 41                  107 	.db #0x41	; 65	'A'
   004F 7F                  108 	.db #0x7f	; 127
   0050 7F                  109 	.db #0x7f	; 127
   0051 7F                  110 	.db #0x7f	; 127
   0052 00                  111 	.db #0x00	; 0
   0053 7F                  112 	.db #0x7f	; 127
   0054 77                  113 	.db #0x77	; 119	'w'
   0055 77                  114 	.db #0x77	; 119	'w'
   0056 41                  115 	.db #0x41	; 65	'A'
   0057 77                  116 	.db #0x77	; 119	'w'
   0058 77                  117 	.db #0x77	; 119	'w'
   0059 7F                  118 	.db #0x7f	; 127
   005A 00                  119 	.db #0x00	; 0
   005B 7F                  120 	.db #0x7f	; 127
   005C 7F                  121 	.db #0x7f	; 127
   005D 7F                  122 	.db #0x7f	; 127
   005E 41                  123 	.db #0x41	; 65	'A'
   005F 63                  124 	.db #0x63	; 99	'c'
   0060 77                  125 	.db #0x77	; 119	'w'
   0061 7F                  126 	.db #0x7f	; 127
   0062 7F                  127 	.db #0x7f	; 127
   0063 5C                  128 	.db #0x5c	; 92
   0064 62                  129 	.db #0x62	; 98	'b'
   0065 70                  130 	.db #0x70	; 112	'p'
   0066 5E                  131 	.db #0x5e	; 94
   0067 42                  132 	.db #0x42	; 66	'B'
   0068 42                  133 	.db #0x42	; 66	'B'
   0069 7E                  134 	.db #0x7e	; 126
   006A 00                  135 	.db #0x00	; 0
   006B FC                  136 	.db #0xfc	; 252
   006C BA                  137 	.db #0xba	; 186
   006D BA                  138 	.db #0xba	; 186
   006E 82                  139 	.db #0x82	; 130
   006F 82                  140 	.db #0x82	; 130
   0070 82                  141 	.db #0x82	; 130
   0071 FE                  142 	.db #0xfe	; 254
   0072 00                  143 	.db #0x00	; 0
   0073 00                  144 	.db #0x00	; 0
   0074 00                  145 	.db #0x00	; 0
   0075 18                  146 	.db #0x18	; 24
   0076 3C                  147 	.db #0x3c	; 60
   0077 7E                  148 	.db #0x7e	; 126
   0078 00                  149 	.db #0x00	; 0
   0079 00                  150 	.db #0x00	; 0
   007A 00                  151 	.db #0x00	; 0
   007B 00                  152 	.db #0x00	; 0
   007C 00                  153 	.db #0x00	; 0
   007D 00                  154 	.db #0x00	; 0
   007E 7E                  155 	.db #0x7e	; 126
   007F 3C                  156 	.db #0x3c	; 60
   0080 18                  157 	.db #0x18	; 24
   0081 00                  158 	.db #0x00	; 0
   0082 00                  159 	.db #0x00	; 0
   0083 00                  160 	.db #0x00	; 0
   0084 08                  161 	.db #0x08	; 8
   0085 18                  162 	.db #0x18	; 24
   0086 38                  163 	.db #0x38	; 56	'8'
   0087 38                  164 	.db #0x38	; 56	'8'
   0088 18                  165 	.db #0x18	; 24
   0089 08                  166 	.db #0x08	; 8
   008A 00                  167 	.db #0x00	; 0
   008B 00                  168 	.db #0x00	; 0
   008C 10                  169 	.db #0x10	; 16
   008D 18                  170 	.db #0x18	; 24
   008E 1C                  171 	.db #0x1c	; 28
   008F 1C                  172 	.db #0x1c	; 28
   0090 18                  173 	.db #0x18	; 24
   0091 10                  174 	.db #0x10	; 16
   0092 00                  175 	.db #0x00	; 0
   0093 00                  176 	.db #0x00	; 0
   0094 00                  177 	.db #0x00	; 0
   0095 00                  178 	.db #0x00	; 0
   0096 00                  179 	.db #0x00	; 0
   0097 00                  180 	.db #0x00	; 0
   0098 00                  181 	.db #0x00	; 0
   0099 00                  182 	.db #0x00	; 0
   009A 00                  183 	.db #0x00	; 0
   009B 00                  184 	.db #0x00	; 0
   009C 00                  185 	.db #0x00	; 0
   009D 00                  186 	.db #0x00	; 0
   009E 00                  187 	.db #0x00	; 0
   009F 00                  188 	.db #0x00	; 0
   00A0 00                  189 	.db #0x00	; 0
   00A1 00                  190 	.db #0x00	; 0
   00A2 00                  191 	.db #0x00	; 0
   00A3 00                  192 	.db #0x00	; 0
   00A4 00                  193 	.db #0x00	; 0
   00A5 00                  194 	.db #0x00	; 0
   00A6 00                  195 	.db #0x00	; 0
   00A7 00                  196 	.db #0x00	; 0
   00A8 00                  197 	.db #0x00	; 0
   00A9 00                  198 	.db #0x00	; 0
   00AA 00                  199 	.db #0x00	; 0
   00AB 00                  200 	.db #0x00	; 0
   00AC 00                  201 	.db #0x00	; 0
   00AD 00                  202 	.db #0x00	; 0
   00AE 00                  203 	.db #0x00	; 0
   00AF 00                  204 	.db #0x00	; 0
   00B0 00                  205 	.db #0x00	; 0
   00B1 00                  206 	.db #0x00	; 0
   00B2 00                  207 	.db #0x00	; 0
   00B3 18                  208 	.db #0x18	; 24
   00B4 18                  209 	.db #0x18	; 24
   00B5 18                  210 	.db #0x18	; 24
   00B6 7E                  211 	.db #0x7e	; 126
   00B7 18                  212 	.db #0x18	; 24
   00B8 18                  213 	.db #0x18	; 24
   00B9 18                  214 	.db #0x18	; 24
   00BA 18                  215 	.db #0x18	; 24
   00BB 18                  216 	.db #0x18	; 24
   00BC 18                  217 	.db #0x18	; 24
   00BD 18                  218 	.db #0x18	; 24
   00BE FF                  219 	.db #0xff	; 255
   00BF FF                  220 	.db #0xff	; 255
   00C0 00                  221 	.db #0x00	; 0
   00C1 00                  222 	.db #0x00	; 0
   00C2 00                  223 	.db #0x00	; 0
   00C3 00                  224 	.db #0x00	; 0
   00C4 00                  225 	.db #0x00	; 0
   00C5 00                  226 	.db #0x00	; 0
   00C6 FF                  227 	.db #0xff	; 255
   00C7 FF                  228 	.db #0xff	; 255
   00C8 18                  229 	.db #0x18	; 24
   00C9 18                  230 	.db #0x18	; 24
   00CA 18                  231 	.db #0x18	; 24
   00CB 18                  232 	.db #0x18	; 24
   00CC 18                  233 	.db #0x18	; 24
   00CD 18                  234 	.db #0x18	; 24
   00CE F8                  235 	.db #0xf8	; 248
   00CF F8                  236 	.db #0xf8	; 248
   00D0 18                  237 	.db #0x18	; 24
   00D1 18                  238 	.db #0x18	; 24
   00D2 18                  239 	.db #0x18	; 24
   00D3 18                  240 	.db #0x18	; 24
   00D4 18                  241 	.db #0x18	; 24
   00D5 18                  242 	.db #0x18	; 24
   00D6 1F                  243 	.db #0x1f	; 31
   00D7 1F                  244 	.db #0x1f	; 31
   00D8 18                  245 	.db #0x18	; 24
   00D9 18                  246 	.db #0x18	; 24
   00DA 18                  247 	.db #0x18	; 24
   00DB 18                  248 	.db #0x18	; 24
   00DC 18                  249 	.db #0x18	; 24
   00DD 18                  250 	.db #0x18	; 24
   00DE FF                  251 	.db #0xff	; 255
   00DF FF                  252 	.db #0xff	; 255
   00E0 18                  253 	.db #0x18	; 24
   00E1 18                  254 	.db #0x18	; 24
   00E2 18                  255 	.db #0x18	; 24
   00E3 18                  256 	.db #0x18	; 24
   00E4 18                  257 	.db #0x18	; 24
   00E5 18                  258 	.db #0x18	; 24
   00E6 18                  259 	.db #0x18	; 24
   00E7 18                  260 	.db #0x18	; 24
   00E8 18                  261 	.db #0x18	; 24
   00E9 18                  262 	.db #0x18	; 24
   00EA 18                  263 	.db #0x18	; 24
   00EB 00                  264 	.db #0x00	; 0
   00EC 00                  265 	.db #0x00	; 0
   00ED 00                  266 	.db #0x00	; 0
   00EE FF                  267 	.db #0xff	; 255
   00EF FF                  268 	.db #0xff	; 255
   00F0 00                  269 	.db #0x00	; 0
   00F1 00                  270 	.db #0x00	; 0
   00F2 00                  271 	.db #0x00	; 0
   00F3 00                  272 	.db #0x00	; 0
   00F4 00                  273 	.db #0x00	; 0
   00F5 00                  274 	.db #0x00	; 0
   00F6 0F                  275 	.db #0x0f	; 15
   00F7 1F                  276 	.db #0x1f	; 31
   00F8 1C                  277 	.db #0x1c	; 28
   00F9 18                  278 	.db #0x18	; 24
   00FA 18                  279 	.db #0x18	; 24
   00FB 00                  280 	.db #0x00	; 0
   00FC 00                  281 	.db #0x00	; 0
   00FD 00                  282 	.db #0x00	; 0
   00FE F0                  283 	.db #0xf0	; 240
   00FF F8                  284 	.db #0xf8	; 248
   0100 38                  285 	.db #0x38	; 56	'8'
   0101 18                  286 	.db #0x18	; 24
   0102 18                  287 	.db #0x18	; 24
   0103 18                  288 	.db #0x18	; 24
   0104 18                  289 	.db #0x18	; 24
   0105 1C                  290 	.db #0x1c	; 28
   0106 1F                  291 	.db #0x1f	; 31
   0107 0F                  292 	.db #0x0f	; 15
   0108 00                  293 	.db #0x00	; 0
   0109 00                  294 	.db #0x00	; 0
   010A 00                  295 	.db #0x00	; 0
   010B 18                  296 	.db #0x18	; 24
   010C 18                  297 	.db #0x18	; 24
   010D 38                  298 	.db #0x38	; 56	'8'
   010E F8                  299 	.db #0xf8	; 248
   010F F0                  300 	.db #0xf0	; 240
   0110 00                  301 	.db #0x00	; 0
   0111 00                  302 	.db #0x00	; 0
   0112 00                  303 	.db #0x00	; 0
   0113 FF                  304 	.db #0xff	; 255
   0114 DD                  305 	.db #0xdd	; 221
   0115 EB                  306 	.db #0xeb	; 235
   0116 F7                  307 	.db #0xf7	; 247
   0117 EB                  308 	.db #0xeb	; 235
   0118 DD                  309 	.db #0xdd	; 221
   0119 FF                  310 	.db #0xff	; 255
   011A FF                  311 	.db #0xff	; 255
   011B 00                  312 	.db #0x00	; 0
   011C 00                  313 	.db #0x00	; 0
   011D 00                  314 	.db #0x00	; 0
   011E 00                  315 	.db #0x00	; 0
   011F 00                  316 	.db #0x00	; 0
   0120 00                  317 	.db #0x00	; 0
   0121 00                  318 	.db #0x00	; 0
   0122 00                  319 	.db #0x00	; 0
   0123 00                  320 	.db #0x00	; 0
   0124 00                  321 	.db #0x00	; 0
   0125 00                  322 	.db #0x00	; 0
   0126 00                  323 	.db #0x00	; 0
   0127 00                  324 	.db #0x00	; 0
   0128 00                  325 	.db #0x00	; 0
   0129 00                  326 	.db #0x00	; 0
   012A 00                  327 	.db #0x00	; 0
   012B 00                  328 	.db #0x00	; 0
   012C 10                  329 	.db #0x10	; 16
   012D 10                  330 	.db #0x10	; 16
   012E FF                  331 	.db #0xff	; 255
   012F FF                  332 	.db #0xff	; 255
   0130 10                  333 	.db #0x10	; 16
   0131 10                  334 	.db #0x10	; 16
   0132 00                  335 	.db #0x00	; 0
   0133 00                  336 	.db #0x00	; 0
   0134 00                  337 	.db #0x00	; 0
   0135 00                  338 	.db #0x00	; 0
   0136 00                  339 	.db #0x00	; 0
   0137 00                  340 	.db #0x00	; 0
   0138 00                  341 	.db #0x00	; 0
   0139 00                  342 	.db #0x00	; 0
   013A 00                  343 	.db #0x00	; 0
   013B 30                  344 	.db #0x30	; 48	'0'
   013C 30                  345 	.db #0x30	; 48	'0'
   013D 30                  346 	.db #0x30	; 48	'0'
   013E 30                  347 	.db #0x30	; 48	'0'
   013F 00                  348 	.db #0x00	; 0
   0140 30                  349 	.db #0x30	; 48	'0'
   0141 30                  350 	.db #0x30	; 48	'0'
   0142 00                  351 	.db #0x00	; 0
   0143 28                  352 	.db #0x28	; 40
   0144 28                  353 	.db #0x28	; 40
   0145 00                  354 	.db #0x00	; 0
   0146 00                  355 	.db #0x00	; 0
   0147 00                  356 	.db #0x00	; 0
   0148 00                  357 	.db #0x00	; 0
   0149 00                  358 	.db #0x00	; 0
   014A 00                  359 	.db #0x00	; 0
   014B 00                  360 	.db #0x00	; 0
   014C 00                  361 	.db #0x00	; 0
   014D 28                  362 	.db #0x28	; 40
   014E 7C                  363 	.db #0x7c	; 124
   014F 28                  364 	.db #0x28	; 40
   0150 7C                  365 	.db #0x7c	; 124
   0151 28                  366 	.db #0x28	; 40
   0152 00                  367 	.db #0x00	; 0
   0153 00                  368 	.db #0x00	; 0
   0154 10                  369 	.db #0x10	; 16
   0155 7C                  370 	.db #0x7c	; 124
   0156 D0                  371 	.db #0xd0	; 208
   0157 7C                  372 	.db #0x7c	; 124
   0158 16                  373 	.db #0x16	; 22
   0159 7C                  374 	.db #0x7c	; 124
   015A 10                  375 	.db #0x10	; 16
   015B 00                  376 	.db #0x00	; 0
   015C 00                  377 	.db #0x00	; 0
   015D 66                  378 	.db #0x66	; 102	'f'
   015E 6C                  379 	.db #0x6c	; 108	'l'
   015F 18                  380 	.db #0x18	; 24
   0160 36                  381 	.db #0x36	; 54	'6'
   0161 66                  382 	.db #0x66	; 102	'f'
   0162 00                  383 	.db #0x00	; 0
   0163 00                  384 	.db #0x00	; 0
   0164 70                  385 	.db #0x70	; 112	'p'
   0165 D8                  386 	.db #0xd8	; 216
   0166 7A                  387 	.db #0x7a	; 122	'z'
   0167 CC                  388 	.db #0xcc	; 204
   0168 CC                  389 	.db #0xcc	; 204
   0169 7A                  390 	.db #0x7a	; 122	'z'
   016A 00                  391 	.db #0x00	; 0
   016B 00                  392 	.db #0x00	; 0
   016C 18                  393 	.db #0x18	; 24
   016D 30                  394 	.db #0x30	; 48	'0'
   016E 00                  395 	.db #0x00	; 0
   016F 00                  396 	.db #0x00	; 0
   0170 00                  397 	.db #0x00	; 0
   0171 00                  398 	.db #0x00	; 0
   0172 00                  399 	.db #0x00	; 0
   0173 18                  400 	.db #0x18	; 24
   0174 30                  401 	.db #0x30	; 48	'0'
   0175 60                  402 	.db #0x60	; 96
   0176 60                  403 	.db #0x60	; 96
   0177 60                  404 	.db #0x60	; 96
   0178 30                  405 	.db #0x30	; 48	'0'
   0179 18                  406 	.db #0x18	; 24
   017A 00                  407 	.db #0x00	; 0
   017B 60                  408 	.db #0x60	; 96
   017C 30                  409 	.db #0x30	; 48	'0'
   017D 18                  410 	.db #0x18	; 24
   017E 18                  411 	.db #0x18	; 24
   017F 18                  412 	.db #0x18	; 24
   0180 30                  413 	.db #0x30	; 48	'0'
   0181 60                  414 	.db #0x60	; 96
   0182 00                  415 	.db #0x00	; 0
   0183 00                  416 	.db #0x00	; 0
   0184 00                  417 	.db #0x00	; 0
   0185 5A                  418 	.db #0x5a	; 90	'Z'
   0186 3C                  419 	.db #0x3c	; 60
   0187 7E                  420 	.db #0x7e	; 126
   0188 3C                  421 	.db #0x3c	; 60
   0189 5A                  422 	.db #0x5a	; 90	'Z'
   018A 00                  423 	.db #0x00	; 0
   018B 00                  424 	.db #0x00	; 0
   018C 00                  425 	.db #0x00	; 0
   018D 18                  426 	.db #0x18	; 24
   018E 18                  427 	.db #0x18	; 24
   018F 7E                  428 	.db #0x7e	; 126
   0190 18                  429 	.db #0x18	; 24
   0191 18                  430 	.db #0x18	; 24
   0192 00                  431 	.db #0x00	; 0
   0193 00                  432 	.db #0x00	; 0
   0194 00                  433 	.db #0x00	; 0
   0195 00                  434 	.db #0x00	; 0
   0196 00                  435 	.db #0x00	; 0
   0197 00                  436 	.db #0x00	; 0
   0198 30                  437 	.db #0x30	; 48	'0'
   0199 30                  438 	.db #0x30	; 48	'0'
   019A 20                  439 	.db #0x20	; 32
   019B 00                  440 	.db #0x00	; 0
   019C 00                  441 	.db #0x00	; 0
   019D 00                  442 	.db #0x00	; 0
   019E 00                  443 	.db #0x00	; 0
   019F 7C                  444 	.db #0x7c	; 124
   01A0 00                  445 	.db #0x00	; 0
   01A1 00                  446 	.db #0x00	; 0
   01A2 00                  447 	.db #0x00	; 0
   01A3 00                  448 	.db #0x00	; 0
   01A4 00                  449 	.db #0x00	; 0
   01A5 00                  450 	.db #0x00	; 0
   01A6 00                  451 	.db #0x00	; 0
   01A7 00                  452 	.db #0x00	; 0
   01A8 30                  453 	.db #0x30	; 48	'0'
   01A9 30                  454 	.db #0x30	; 48	'0'
   01AA 00                  455 	.db #0x00	; 0
   01AB 00                  456 	.db #0x00	; 0
   01AC 06                  457 	.db #0x06	; 6
   01AD 0C                  458 	.db #0x0c	; 12
   01AE 18                  459 	.db #0x18	; 24
   01AF 30                  460 	.db #0x30	; 48	'0'
   01B0 60                  461 	.db #0x60	; 96
   01B1 C0                  462 	.db #0xc0	; 192
   01B2 00                  463 	.db #0x00	; 0
   01B3 7C                  464 	.db #0x7c	; 124
   01B4 C6                  465 	.db #0xc6	; 198
   01B5 CE                  466 	.db #0xce	; 206
   01B6 D6                  467 	.db #0xd6	; 214
   01B7 E6                  468 	.db #0xe6	; 230
   01B8 C6                  469 	.db #0xc6	; 198
   01B9 7C                  470 	.db #0x7c	; 124
   01BA 00                  471 	.db #0x00	; 0
   01BB 30                  472 	.db #0x30	; 48	'0'
   01BC 70                  473 	.db #0x70	; 112	'p'
   01BD 30                  474 	.db #0x30	; 48	'0'
   01BE 30                  475 	.db #0x30	; 48	'0'
   01BF 30                  476 	.db #0x30	; 48	'0'
   01C0 30                  477 	.db #0x30	; 48	'0'
   01C1 78                  478 	.db #0x78	; 120	'x'
   01C2 00                  479 	.db #0x00	; 0
   01C3 FC                  480 	.db #0xfc	; 252
   01C4 06                  481 	.db #0x06	; 6
   01C5 06                  482 	.db #0x06	; 6
   01C6 7C                  483 	.db #0x7c	; 124
   01C7 C0                  484 	.db #0xc0	; 192
   01C8 C0                  485 	.db #0xc0	; 192
   01C9 FE                  486 	.db #0xfe	; 254
   01CA 00                  487 	.db #0x00	; 0
   01CB FC                  488 	.db #0xfc	; 252
   01CC 06                  489 	.db #0x06	; 6
   01CD 06                  490 	.db #0x06	; 6
   01CE 7C                  491 	.db #0x7c	; 124
   01CF 06                  492 	.db #0x06	; 6
   01D0 06                  493 	.db #0x06	; 6
   01D1 FC                  494 	.db #0xfc	; 252
   01D2 00                  495 	.db #0x00	; 0
   01D3 C6                  496 	.db #0xc6	; 198
   01D4 C6                  497 	.db #0xc6	; 198
   01D5 C6                  498 	.db #0xc6	; 198
   01D6 FE                  499 	.db #0xfe	; 254
   01D7 06                  500 	.db #0x06	; 6
   01D8 06                  501 	.db #0x06	; 6
   01D9 06                  502 	.db #0x06	; 6
   01DA 00                  503 	.db #0x00	; 0
   01DB FE                  504 	.db #0xfe	; 254
   01DC C0                  505 	.db #0xc0	; 192
   01DD C0                  506 	.db #0xc0	; 192
   01DE FC                  507 	.db #0xfc	; 252
   01DF 06                  508 	.db #0x06	; 6
   01E0 06                  509 	.db #0x06	; 6
   01E1 FC                  510 	.db #0xfc	; 252
   01E2 00                  511 	.db #0x00	; 0
   01E3 7C                  512 	.db #0x7c	; 124
   01E4 C0                  513 	.db #0xc0	; 192
   01E5 C0                  514 	.db #0xc0	; 192
   01E6 FC                  515 	.db #0xfc	; 252
   01E7 C6                  516 	.db #0xc6	; 198
   01E8 C6                  517 	.db #0xc6	; 198
   01E9 7C                  518 	.db #0x7c	; 124
   01EA 00                  519 	.db #0x00	; 0
   01EB FE                  520 	.db #0xfe	; 254
   01EC 06                  521 	.db #0x06	; 6
   01ED 0C                  522 	.db #0x0c	; 12
   01EE 18                  523 	.db #0x18	; 24
   01EF 30                  524 	.db #0x30	; 48	'0'
   01F0 30                  525 	.db #0x30	; 48	'0'
   01F1 30                  526 	.db #0x30	; 48	'0'
   01F2 00                  527 	.db #0x00	; 0
   01F3 7C                  528 	.db #0x7c	; 124
   01F4 C6                  529 	.db #0xc6	; 198
   01F5 C6                  530 	.db #0xc6	; 198
   01F6 7C                  531 	.db #0x7c	; 124
   01F7 C6                  532 	.db #0xc6	; 198
   01F8 C6                  533 	.db #0xc6	; 198
   01F9 7C                  534 	.db #0x7c	; 124
   01FA 00                  535 	.db #0x00	; 0
   01FB 7C                  536 	.db #0x7c	; 124
   01FC C6                  537 	.db #0xc6	; 198
   01FD C6                  538 	.db #0xc6	; 198
   01FE 7E                  539 	.db #0x7e	; 126
   01FF 06                  540 	.db #0x06	; 6
   0200 06                  541 	.db #0x06	; 6
   0201 7C                  542 	.db #0x7c	; 124
   0202 00                  543 	.db #0x00	; 0
   0203 00                  544 	.db #0x00	; 0
   0204 30                  545 	.db #0x30	; 48	'0'
   0205 30                  546 	.db #0x30	; 48	'0'
   0206 00                  547 	.db #0x00	; 0
   0207 30                  548 	.db #0x30	; 48	'0'
   0208 30                  549 	.db #0x30	; 48	'0'
   0209 00                  550 	.db #0x00	; 0
   020A 00                  551 	.db #0x00	; 0
   020B 00                  552 	.db #0x00	; 0
   020C 30                  553 	.db #0x30	; 48	'0'
   020D 30                  554 	.db #0x30	; 48	'0'
   020E 00                  555 	.db #0x00	; 0
   020F 30                  556 	.db #0x30	; 48	'0'
   0210 30                  557 	.db #0x30	; 48	'0'
   0211 20                  558 	.db #0x20	; 32
   0212 00                  559 	.db #0x00	; 0
   0213 00                  560 	.db #0x00	; 0
   0214 18                  561 	.db #0x18	; 24
   0215 30                  562 	.db #0x30	; 48	'0'
   0216 60                  563 	.db #0x60	; 96
   0217 30                  564 	.db #0x30	; 48	'0'
   0218 18                  565 	.db #0x18	; 24
   0219 00                  566 	.db #0x00	; 0
   021A 00                  567 	.db #0x00	; 0
   021B 00                  568 	.db #0x00	; 0
   021C 00                  569 	.db #0x00	; 0
   021D 78                  570 	.db #0x78	; 120	'x'
   021E 00                  571 	.db #0x00	; 0
   021F 78                  572 	.db #0x78	; 120	'x'
   0220 00                  573 	.db #0x00	; 0
   0221 00                  574 	.db #0x00	; 0
   0222 00                  575 	.db #0x00	; 0
   0223 00                  576 	.db #0x00	; 0
   0224 60                  577 	.db #0x60	; 96
   0225 30                  578 	.db #0x30	; 48	'0'
   0226 18                  579 	.db #0x18	; 24
   0227 30                  580 	.db #0x30	; 48	'0'
   0228 60                  581 	.db #0x60	; 96
   0229 00                  582 	.db #0x00	; 0
   022A 00                  583 	.db #0x00	; 0
   022B 3C                  584 	.db #0x3c	; 60
   022C 66                  585 	.db #0x66	; 102	'f'
   022D 06                  586 	.db #0x06	; 6
   022E 0C                  587 	.db #0x0c	; 12
   022F 18                  588 	.db #0x18	; 24
   0230 00                  589 	.db #0x00	; 0
   0231 18                  590 	.db #0x18	; 24
   0232 00                  591 	.db #0x00	; 0
   0233 7C                  592 	.db #0x7c	; 124
   0234 82                  593 	.db #0x82	; 130
   0235 BA                  594 	.db #0xba	; 186
   0236 AA                  595 	.db #0xaa	; 170
   0237 BE                  596 	.db #0xbe	; 190
   0238 80                  597 	.db #0x80	; 128
   0239 7C                  598 	.db #0x7c	; 124
   023A 00                  599 	.db #0x00	; 0
   023B 7C                  600 	.db #0x7c	; 124
   023C C6                  601 	.db #0xc6	; 198
   023D C6                  602 	.db #0xc6	; 198
   023E C6                  603 	.db #0xc6	; 198
   023F FE                  604 	.db #0xfe	; 254
   0240 C6                  605 	.db #0xc6	; 198
   0241 C6                  606 	.db #0xc6	; 198
   0242 00                  607 	.db #0x00	; 0
   0243 FC                  608 	.db #0xfc	; 252
   0244 C6                  609 	.db #0xc6	; 198
   0245 C6                  610 	.db #0xc6	; 198
   0246 FC                  611 	.db #0xfc	; 252
   0247 C6                  612 	.db #0xc6	; 198
   0248 C6                  613 	.db #0xc6	; 198
   0249 FC                  614 	.db #0xfc	; 252
   024A 00                  615 	.db #0x00	; 0
   024B 7E                  616 	.db #0x7e	; 126
   024C C0                  617 	.db #0xc0	; 192
   024D C0                  618 	.db #0xc0	; 192
   024E C0                  619 	.db #0xc0	; 192
   024F C0                  620 	.db #0xc0	; 192
   0250 C0                  621 	.db #0xc0	; 192
   0251 7E                  622 	.db #0x7e	; 126
   0252 00                  623 	.db #0x00	; 0
   0253 FC                  624 	.db #0xfc	; 252
   0254 C6                  625 	.db #0xc6	; 198
   0255 C6                  626 	.db #0xc6	; 198
   0256 C6                  627 	.db #0xc6	; 198
   0257 C6                  628 	.db #0xc6	; 198
   0258 C6                  629 	.db #0xc6	; 198
   0259 FC                  630 	.db #0xfc	; 252
   025A 00                  631 	.db #0x00	; 0
   025B FE                  632 	.db #0xfe	; 254
   025C C0                  633 	.db #0xc0	; 192
   025D C0                  634 	.db #0xc0	; 192
   025E F8                  635 	.db #0xf8	; 248
   025F C0                  636 	.db #0xc0	; 192
   0260 C0                  637 	.db #0xc0	; 192
   0261 FE                  638 	.db #0xfe	; 254
   0262 00                  639 	.db #0x00	; 0
   0263 FE                  640 	.db #0xfe	; 254
   0264 C0                  641 	.db #0xc0	; 192
   0265 C0                  642 	.db #0xc0	; 192
   0266 FC                  643 	.db #0xfc	; 252
   0267 C0                  644 	.db #0xc0	; 192
   0268 C0                  645 	.db #0xc0	; 192
   0269 C0                  646 	.db #0xc0	; 192
   026A 00                  647 	.db #0x00	; 0
   026B 7E                  648 	.db #0x7e	; 126
   026C C0                  649 	.db #0xc0	; 192
   026D C0                  650 	.db #0xc0	; 192
   026E CE                  651 	.db #0xce	; 206
   026F C6                  652 	.db #0xc6	; 198
   0270 C6                  653 	.db #0xc6	; 198
   0271 7E                  654 	.db #0x7e	; 126
   0272 00                  655 	.db #0x00	; 0
   0273 C6                  656 	.db #0xc6	; 198
   0274 C6                  657 	.db #0xc6	; 198
   0275 C6                  658 	.db #0xc6	; 198
   0276 FE                  659 	.db #0xfe	; 254
   0277 C6                  660 	.db #0xc6	; 198
   0278 C6                  661 	.db #0xc6	; 198
   0279 C6                  662 	.db #0xc6	; 198
   027A 00                  663 	.db #0x00	; 0
   027B 78                  664 	.db #0x78	; 120	'x'
   027C 30                  665 	.db #0x30	; 48	'0'
   027D 30                  666 	.db #0x30	; 48	'0'
   027E 30                  667 	.db #0x30	; 48	'0'
   027F 30                  668 	.db #0x30	; 48	'0'
   0280 30                  669 	.db #0x30	; 48	'0'
   0281 78                  670 	.db #0x78	; 120	'x'
   0282 00                  671 	.db #0x00	; 0
   0283 3C                  672 	.db #0x3c	; 60
   0284 18                  673 	.db #0x18	; 24
   0285 18                  674 	.db #0x18	; 24
   0286 18                  675 	.db #0x18	; 24
   0287 18                  676 	.db #0x18	; 24
   0288 D8                  677 	.db #0xd8	; 216
   0289 70                  678 	.db #0x70	; 112	'p'
   028A 00                  679 	.db #0x00	; 0
   028B C6                  680 	.db #0xc6	; 198
   028C C6                  681 	.db #0xc6	; 198
   028D CC                  682 	.db #0xcc	; 204
   028E F8                  683 	.db #0xf8	; 248
   028F CC                  684 	.db #0xcc	; 204
   0290 C6                  685 	.db #0xc6	; 198
   0291 C6                  686 	.db #0xc6	; 198
   0292 00                  687 	.db #0x00	; 0
   0293 C0                  688 	.db #0xc0	; 192
   0294 C0                  689 	.db #0xc0	; 192
   0295 C0                  690 	.db #0xc0	; 192
   0296 C0                  691 	.db #0xc0	; 192
   0297 C0                  692 	.db #0xc0	; 192
   0298 C0                  693 	.db #0xc0	; 192
   0299 FE                  694 	.db #0xfe	; 254
   029A 00                  695 	.db #0x00	; 0
   029B C6                  696 	.db #0xc6	; 198
   029C EE                  697 	.db #0xee	; 238
   029D FE                  698 	.db #0xfe	; 254
   029E D6                  699 	.db #0xd6	; 214
   029F C6                  700 	.db #0xc6	; 198
   02A0 C6                  701 	.db #0xc6	; 198
   02A1 C6                  702 	.db #0xc6	; 198
   02A2 00                  703 	.db #0x00	; 0
   02A3 C6                  704 	.db #0xc6	; 198
   02A4 E6                  705 	.db #0xe6	; 230
   02A5 F6                  706 	.db #0xf6	; 246
   02A6 DE                  707 	.db #0xde	; 222
   02A7 CE                  708 	.db #0xce	; 206
   02A8 C6                  709 	.db #0xc6	; 198
   02A9 C6                  710 	.db #0xc6	; 198
   02AA 00                  711 	.db #0x00	; 0
   02AB 7C                  712 	.db #0x7c	; 124
   02AC C6                  713 	.db #0xc6	; 198
   02AD C6                  714 	.db #0xc6	; 198
   02AE C6                  715 	.db #0xc6	; 198
   02AF C6                  716 	.db #0xc6	; 198
   02B0 C6                  717 	.db #0xc6	; 198
   02B1 7C                  718 	.db #0x7c	; 124
   02B2 00                  719 	.db #0x00	; 0
   02B3 FC                  720 	.db #0xfc	; 252
   02B4 C6                  721 	.db #0xc6	; 198
   02B5 C6                  722 	.db #0xc6	; 198
   02B6 C6                  723 	.db #0xc6	; 198
   02B7 FC                  724 	.db #0xfc	; 252
   02B8 C0                  725 	.db #0xc0	; 192
   02B9 C0                  726 	.db #0xc0	; 192
   02BA 00                  727 	.db #0x00	; 0
   02BB 7C                  728 	.db #0x7c	; 124
   02BC C6                  729 	.db #0xc6	; 198
   02BD C6                  730 	.db #0xc6	; 198
   02BE C6                  731 	.db #0xc6	; 198
   02BF D6                  732 	.db #0xd6	; 214
   02C0 CC                  733 	.db #0xcc	; 204
   02C1 7A                  734 	.db #0x7a	; 122	'z'
   02C2 00                  735 	.db #0x00	; 0
   02C3 FC                  736 	.db #0xfc	; 252
   02C4 C6                  737 	.db #0xc6	; 198
   02C5 C6                  738 	.db #0xc6	; 198
   02C6 FC                  739 	.db #0xfc	; 252
   02C7 C6                  740 	.db #0xc6	; 198
   02C8 C6                  741 	.db #0xc6	; 198
   02C9 C6                  742 	.db #0xc6	; 198
   02CA 00                  743 	.db #0x00	; 0
   02CB 7E                  744 	.db #0x7e	; 126
   02CC C0                  745 	.db #0xc0	; 192
   02CD C0                  746 	.db #0xc0	; 192
   02CE 7C                  747 	.db #0x7c	; 124
   02CF 06                  748 	.db #0x06	; 6
   02D0 06                  749 	.db #0x06	; 6
   02D1 FC                  750 	.db #0xfc	; 252
   02D2 00                  751 	.db #0x00	; 0
   02D3 FC                  752 	.db #0xfc	; 252
   02D4 30                  753 	.db #0x30	; 48	'0'
   02D5 30                  754 	.db #0x30	; 48	'0'
   02D6 30                  755 	.db #0x30	; 48	'0'
   02D7 30                  756 	.db #0x30	; 48	'0'
   02D8 30                  757 	.db #0x30	; 48	'0'
   02D9 30                  758 	.db #0x30	; 48	'0'
   02DA 00                  759 	.db #0x00	; 0
   02DB C6                  760 	.db #0xc6	; 198
   02DC C6                  761 	.db #0xc6	; 198
   02DD C6                  762 	.db #0xc6	; 198
   02DE C6                  763 	.db #0xc6	; 198
   02DF C6                  764 	.db #0xc6	; 198
   02E0 C6                  765 	.db #0xc6	; 198
   02E1 7C                  766 	.db #0x7c	; 124
   02E2 00                  767 	.db #0x00	; 0
   02E3 C6                  768 	.db #0xc6	; 198
   02E4 C6                  769 	.db #0xc6	; 198
   02E5 C6                  770 	.db #0xc6	; 198
   02E6 C6                  771 	.db #0xc6	; 198
   02E7 C6                  772 	.db #0xc6	; 198
   02E8 6C                  773 	.db #0x6c	; 108	'l'
   02E9 38                  774 	.db #0x38	; 56	'8'
   02EA 00                  775 	.db #0x00	; 0
   02EB C6                  776 	.db #0xc6	; 198
   02EC C6                  777 	.db #0xc6	; 198
   02ED C6                  778 	.db #0xc6	; 198
   02EE D6                  779 	.db #0xd6	; 214
   02EF FE                  780 	.db #0xfe	; 254
   02F0 EE                  781 	.db #0xee	; 238
   02F1 C6                  782 	.db #0xc6	; 198
   02F2 00                  783 	.db #0x00	; 0
   02F3 C6                  784 	.db #0xc6	; 198
   02F4 C6                  785 	.db #0xc6	; 198
   02F5 6C                  786 	.db #0x6c	; 108	'l'
   02F6 38                  787 	.db #0x38	; 56	'8'
   02F7 6C                  788 	.db #0x6c	; 108	'l'
   02F8 C6                  789 	.db #0xc6	; 198
   02F9 C6                  790 	.db #0xc6	; 198
   02FA 00                  791 	.db #0x00	; 0
   02FB CC                  792 	.db #0xcc	; 204
   02FC CC                  793 	.db #0xcc	; 204
   02FD CC                  794 	.db #0xcc	; 204
   02FE 78                  795 	.db #0x78	; 120	'x'
   02FF 30                  796 	.db #0x30	; 48	'0'
   0300 30                  797 	.db #0x30	; 48	'0'
   0301 30                  798 	.db #0x30	; 48	'0'
   0302 00                  799 	.db #0x00	; 0
   0303 FE                  800 	.db #0xfe	; 254
   0304 06                  801 	.db #0x06	; 6
   0305 0C                  802 	.db #0x0c	; 12
   0306 18                  803 	.db #0x18	; 24
   0307 30                  804 	.db #0x30	; 48	'0'
   0308 60                  805 	.db #0x60	; 96
   0309 FE                  806 	.db #0xfe	; 254
   030A 00                  807 	.db #0x00	; 0
   030B 0E                  808 	.db #0x0e	; 14
   030C 0C                  809 	.db #0x0c	; 12
   030D 0C                  810 	.db #0x0c	; 12
   030E 0C                  811 	.db #0x0c	; 12
   030F 0C                  812 	.db #0x0c	; 12
   0310 0C                  813 	.db #0x0c	; 12
   0311 0E                  814 	.db #0x0e	; 14
   0312 00                  815 	.db #0x00	; 0
   0313 00                  816 	.db #0x00	; 0
   0314 C0                  817 	.db #0xc0	; 192
   0315 60                  818 	.db #0x60	; 96
   0316 30                  819 	.db #0x30	; 48	'0'
   0317 18                  820 	.db #0x18	; 24
   0318 0C                  821 	.db #0x0c	; 12
   0319 06                  822 	.db #0x06	; 6
   031A 00                  823 	.db #0x00	; 0
   031B 38                  824 	.db #0x38	; 56	'8'
   031C 18                  825 	.db #0x18	; 24
   031D 18                  826 	.db #0x18	; 24
   031E 18                  827 	.db #0x18	; 24
   031F 18                  828 	.db #0x18	; 24
   0320 18                  829 	.db #0x18	; 24
   0321 38                  830 	.db #0x38	; 56	'8'
   0322 00                  831 	.db #0x00	; 0
   0323 00                  832 	.db #0x00	; 0
   0324 00                  833 	.db #0x00	; 0
   0325 00                  834 	.db #0x00	; 0
   0326 00                  835 	.db #0x00	; 0
   0327 00                  836 	.db #0x00	; 0
   0328 00                  837 	.db #0x00	; 0
   0329 00                  838 	.db #0x00	; 0
   032A 00                  839 	.db #0x00	; 0
   032B 00                  840 	.db #0x00	; 0
   032C 00                  841 	.db #0x00	; 0
   032D 00                  842 	.db #0x00	; 0
   032E 00                  843 	.db #0x00	; 0
   032F 00                  844 	.db #0x00	; 0
   0330 00                  845 	.db #0x00	; 0
   0331 7E                  846 	.db #0x7e	; 126
   0332 00                  847 	.db #0x00	; 0
   0333 00                  848 	.db #0x00	; 0
   0334 00                  849 	.db #0x00	; 0
   0335 00                  850 	.db #0x00	; 0
   0336 00                  851 	.db #0x00	; 0
   0337 00                  852 	.db #0x00	; 0
   0338 00                  853 	.db #0x00	; 0
   0339 00                  854 	.db #0x00	; 0
   033A 00                  855 	.db #0x00	; 0
   033B 00                  856 	.db #0x00	; 0
   033C 00                  857 	.db #0x00	; 0
   033D FC                  858 	.db #0xfc	; 252
   033E 06                  859 	.db #0x06	; 6
   033F 7E                  860 	.db #0x7e	; 126
   0340 C6                  861 	.db #0xc6	; 198
   0341 FE                  862 	.db #0xfe	; 254
   0342 00                  863 	.db #0x00	; 0
   0343 C0                  864 	.db #0xc0	; 192
   0344 C0                  865 	.db #0xc0	; 192
   0345 FC                  866 	.db #0xfc	; 252
   0346 C6                  867 	.db #0xc6	; 198
   0347 C6                  868 	.db #0xc6	; 198
   0348 C6                  869 	.db #0xc6	; 198
   0349 FC                  870 	.db #0xfc	; 252
   034A 00                  871 	.db #0x00	; 0
   034B 00                  872 	.db #0x00	; 0
   034C 00                  873 	.db #0x00	; 0
   034D 7E                  874 	.db #0x7e	; 126
   034E C0                  875 	.db #0xc0	; 192
   034F C0                  876 	.db #0xc0	; 192
   0350 C0                  877 	.db #0xc0	; 192
   0351 7E                  878 	.db #0x7e	; 126
   0352 00                  879 	.db #0x00	; 0
   0353 06                  880 	.db #0x06	; 6
   0354 06                  881 	.db #0x06	; 6
   0355 7E                  882 	.db #0x7e	; 126
   0356 C6                  883 	.db #0xc6	; 198
   0357 C6                  884 	.db #0xc6	; 198
   0358 C6                  885 	.db #0xc6	; 198
   0359 7E                  886 	.db #0x7e	; 126
   035A 00                  887 	.db #0x00	; 0
   035B 00                  888 	.db #0x00	; 0
   035C 00                  889 	.db #0x00	; 0
   035D 7C                  890 	.db #0x7c	; 124
   035E C6                  891 	.db #0xc6	; 198
   035F FE                  892 	.db #0xfe	; 254
   0360 C0                  893 	.db #0xc0	; 192
   0361 7C                  894 	.db #0x7c	; 124
   0362 00                  895 	.db #0x00	; 0
   0363 3C                  896 	.db #0x3c	; 60
   0364 60                  897 	.db #0x60	; 96
   0365 60                  898 	.db #0x60	; 96
   0366 F8                  899 	.db #0xf8	; 248
   0367 60                  900 	.db #0x60	; 96
   0368 60                  901 	.db #0x60	; 96
   0369 60                  902 	.db #0x60	; 96
   036A 00                  903 	.db #0x00	; 0
   036B 00                  904 	.db #0x00	; 0
   036C 00                  905 	.db #0x00	; 0
   036D 7E                  906 	.db #0x7e	; 126
   036E C6                  907 	.db #0xc6	; 198
   036F C6                  908 	.db #0xc6	; 198
   0370 7E                  909 	.db #0x7e	; 126
   0371 06                  910 	.db #0x06	; 6
   0372 7C                  911 	.db #0x7c	; 124
   0373 C0                  912 	.db #0xc0	; 192
   0374 C0                  913 	.db #0xc0	; 192
   0375 FC                  914 	.db #0xfc	; 252
   0376 C6                  915 	.db #0xc6	; 198
   0377 C6                  916 	.db #0xc6	; 198
   0378 C6                  917 	.db #0xc6	; 198
   0379 C6                  918 	.db #0xc6	; 198
   037A 00                  919 	.db #0x00	; 0
   037B 30                  920 	.db #0x30	; 48	'0'
   037C 00                  921 	.db #0x00	; 0
   037D 70                  922 	.db #0x70	; 112	'p'
   037E 30                  923 	.db #0x30	; 48	'0'
   037F 30                  924 	.db #0x30	; 48	'0'
   0380 30                  925 	.db #0x30	; 48	'0'
   0381 78                  926 	.db #0x78	; 120	'x'
   0382 00                  927 	.db #0x00	; 0
   0383 18                  928 	.db #0x18	; 24
   0384 00                  929 	.db #0x00	; 0
   0385 18                  930 	.db #0x18	; 24
   0386 18                  931 	.db #0x18	; 24
   0387 18                  932 	.db #0x18	; 24
   0388 18                  933 	.db #0x18	; 24
   0389 18                  934 	.db #0x18	; 24
   038A 70                  935 	.db #0x70	; 112	'p'
   038B C0                  936 	.db #0xc0	; 192
   038C C0                  937 	.db #0xc0	; 192
   038D C6                  938 	.db #0xc6	; 198
   038E CC                  939 	.db #0xcc	; 204
   038F F8                  940 	.db #0xf8	; 248
   0390 CC                  941 	.db #0xcc	; 204
   0391 C6                  942 	.db #0xc6	; 198
   0392 00                  943 	.db #0x00	; 0
   0393 70                  944 	.db #0x70	; 112	'p'
   0394 30                  945 	.db #0x30	; 48	'0'
   0395 30                  946 	.db #0x30	; 48	'0'
   0396 30                  947 	.db #0x30	; 48	'0'
   0397 30                  948 	.db #0x30	; 48	'0'
   0398 30                  949 	.db #0x30	; 48	'0'
   0399 78                  950 	.db #0x78	; 120	'x'
   039A 00                  951 	.db #0x00	; 0
   039B 00                  952 	.db #0x00	; 0
   039C 00                  953 	.db #0x00	; 0
   039D FC                  954 	.db #0xfc	; 252
   039E D6                  955 	.db #0xd6	; 214
   039F D6                  956 	.db #0xd6	; 214
   03A0 D6                  957 	.db #0xd6	; 214
   03A1 D6                  958 	.db #0xd6	; 214
   03A2 00                  959 	.db #0x00	; 0
   03A3 00                  960 	.db #0x00	; 0
   03A4 00                  961 	.db #0x00	; 0
   03A5 DC                  962 	.db #0xdc	; 220
   03A6 E6                  963 	.db #0xe6	; 230
   03A7 C6                  964 	.db #0xc6	; 198
   03A8 C6                  965 	.db #0xc6	; 198
   03A9 C6                  966 	.db #0xc6	; 198
   03AA 00                  967 	.db #0x00	; 0
   03AB 00                  968 	.db #0x00	; 0
   03AC 00                  969 	.db #0x00	; 0
   03AD 7C                  970 	.db #0x7c	; 124
   03AE C6                  971 	.db #0xc6	; 198
   03AF C6                  972 	.db #0xc6	; 198
   03B0 C6                  973 	.db #0xc6	; 198
   03B1 7C                  974 	.db #0x7c	; 124
   03B2 00                  975 	.db #0x00	; 0
   03B3 00                  976 	.db #0x00	; 0
   03B4 00                  977 	.db #0x00	; 0
   03B5 FC                  978 	.db #0xfc	; 252
   03B6 C6                  979 	.db #0xc6	; 198
   03B7 C6                  980 	.db #0xc6	; 198
   03B8 C6                  981 	.db #0xc6	; 198
   03B9 FC                  982 	.db #0xfc	; 252
   03BA C0                  983 	.db #0xc0	; 192
   03BB 00                  984 	.db #0x00	; 0
   03BC 00                  985 	.db #0x00	; 0
   03BD 7E                  986 	.db #0x7e	; 126
   03BE C6                  987 	.db #0xc6	; 198
   03BF C6                  988 	.db #0xc6	; 198
   03C0 C6                  989 	.db #0xc6	; 198
   03C1 7E                  990 	.db #0x7e	; 126
   03C2 06                  991 	.db #0x06	; 6
   03C3 00                  992 	.db #0x00	; 0
   03C4 00                  993 	.db #0x00	; 0
   03C5 DC                  994 	.db #0xdc	; 220
   03C6 E6                  995 	.db #0xe6	; 230
   03C7 C0                  996 	.db #0xc0	; 192
   03C8 C0                  997 	.db #0xc0	; 192
   03C9 C0                  998 	.db #0xc0	; 192
   03CA 00                  999 	.db #0x00	; 0
   03CB 00                 1000 	.db #0x00	; 0
   03CC 00                 1001 	.db #0x00	; 0
   03CD 7E                 1002 	.db #0x7e	; 126
   03CE C0                 1003 	.db #0xc0	; 192
   03CF 7C                 1004 	.db #0x7c	; 124
   03D0 06                 1005 	.db #0x06	; 6
   03D1 FC                 1006 	.db #0xfc	; 252
   03D2 00                 1007 	.db #0x00	; 0
   03D3 30                 1008 	.db #0x30	; 48	'0'
   03D4 30                 1009 	.db #0x30	; 48	'0'
   03D5 7C                 1010 	.db #0x7c	; 124
   03D6 30                 1011 	.db #0x30	; 48	'0'
   03D7 30                 1012 	.db #0x30	; 48	'0'
   03D8 30                 1013 	.db #0x30	; 48	'0'
   03D9 1C                 1014 	.db #0x1c	; 28
   03DA 00                 1015 	.db #0x00	; 0
   03DB 00                 1016 	.db #0x00	; 0
   03DC 00                 1017 	.db #0x00	; 0
   03DD C6                 1018 	.db #0xc6	; 198
   03DE C6                 1019 	.db #0xc6	; 198
   03DF C6                 1020 	.db #0xc6	; 198
   03E0 C6                 1021 	.db #0xc6	; 198
   03E1 7C                 1022 	.db #0x7c	; 124
   03E2 00                 1023 	.db #0x00	; 0
   03E3 00                 1024 	.db #0x00	; 0
   03E4 00                 1025 	.db #0x00	; 0
   03E5 C6                 1026 	.db #0xc6	; 198
   03E6 C6                 1027 	.db #0xc6	; 198
   03E7 C6                 1028 	.db #0xc6	; 198
   03E8 6C                 1029 	.db #0x6c	; 108	'l'
   03E9 38                 1030 	.db #0x38	; 56	'8'
   03EA 00                 1031 	.db #0x00	; 0
   03EB 00                 1032 	.db #0x00	; 0
   03EC 00                 1033 	.db #0x00	; 0
   03ED C6                 1034 	.db #0xc6	; 198
   03EE D6                 1035 	.db #0xd6	; 214
   03EF FE                 1036 	.db #0xfe	; 254
   03F0 EE                 1037 	.db #0xee	; 238
   03F1 C6                 1038 	.db #0xc6	; 198
   03F2 00                 1039 	.db #0x00	; 0
   03F3 00                 1040 	.db #0x00	; 0
   03F4 00                 1041 	.db #0x00	; 0
   03F5 C6                 1042 	.db #0xc6	; 198
   03F6 6C                 1043 	.db #0x6c	; 108	'l'
   03F7 38                 1044 	.db #0x38	; 56	'8'
   03F8 6C                 1045 	.db #0x6c	; 108	'l'
   03F9 C6                 1046 	.db #0xc6	; 198
   03FA 00                 1047 	.db #0x00	; 0
   03FB 00                 1048 	.db #0x00	; 0
   03FC 00                 1049 	.db #0x00	; 0
   03FD C6                 1050 	.db #0xc6	; 198
   03FE C6                 1051 	.db #0xc6	; 198
   03FF C6                 1052 	.db #0xc6	; 198
   0400 7E                 1053 	.db #0x7e	; 126
   0401 06                 1054 	.db #0x06	; 6
   0402 7C                 1055 	.db #0x7c	; 124
   0403 00                 1056 	.db #0x00	; 0
   0404 00                 1057 	.db #0x00	; 0
   0405 FC                 1058 	.db #0xfc	; 252
   0406 18                 1059 	.db #0x18	; 24
   0407 30                 1060 	.db #0x30	; 48	'0'
   0408 60                 1061 	.db #0x60	; 96
   0409 FC                 1062 	.db #0xfc	; 252
   040A 00                 1063 	.db #0x00	; 0
                           1064 ;src\Test.c:155: char inkey() __naked
                           1065 ;	---------------------------------
                           1066 ; Function inkey
                           1067 ; ---------------------------------
   040B                    1068 _inkey::
                           1069 ;src\Test.c:161: __endasm;
   040B CD 9F 00      [17] 1070 	call	0x009F
   040E 6F            [ 4] 1071 	ld	L,A
   040F C9            [10] 1072 	ret
                           1073 ;src\Test.c:162: }
                           1074 ;src\Test.c:168: void WAIT(uint cicles)
                           1075 ;	---------------------------------
                           1076 ; Function WAIT
                           1077 ; ---------------------------------
   0410                    1078 _WAIT::
                           1079 ;src\Test.c:171: for(i=0;i<cicles;i++) HALT;
   0410 01 00 00      [10] 1080 	ld	bc, #0x0000
   0413                    1081 00103$:
   0413 21 02 00      [10] 1082 	ld	hl, #2
   0416 39            [11] 1083 	add	hl, sp
   0417 79            [ 4] 1084 	ld	a, c
   0418 96            [ 7] 1085 	sub	a, (hl)
   0419 78            [ 4] 1086 	ld	a, b
   041A 23            [ 6] 1087 	inc	hl
   041B 9E            [ 7] 1088 	sbc	a, (hl)
   041C D0            [11] 1089 	ret	NC
   041D 76            [ 4] 1090 	halt	
   041E 03            [ 6] 1091 	inc	bc
                           1092 ;src\Test.c:172: return;
                           1093 ;src\Test.c:173: }
   041F 18 F2         [12] 1094 	jr	00103$
                           1095 ;src\Test.c:181: void test_SC1()
                           1096 ;	---------------------------------
                           1097 ; Function test_SC1
                           1098 ; ---------------------------------
   0421                    1099 _test_SC1::
                           1100 ;src\Test.c:183: COLOR(LIGHT_GREEN,DARK_GREEN,DARK_GREEN);    
   0421 11 0C 0C      [10] 1101 	ld	de, #0x0c0c
   0424 D5            [11] 1102 	push	de
   0425 3E 03         [ 7] 1103 	ld	a, #0x03
   0427 F5            [11] 1104 	push	af
   0428 33            [ 6] 1105 	inc	sp
   0429 CDr00r00      [17] 1106 	call	_COLOR
   042C F1            [10] 1107 	pop	af
   042D 33            [ 6] 1108 	inc	sp
                           1109 ;src\Test.c:184: SCREEN(1);
   042E 3E 01         [ 7] 1110 	ld	a, #0x01
   0430 F5            [11] 1111 	push	af
   0431 33            [ 6] 1112 	inc	sp
   0432 CDr00r00      [17] 1113 	call	_SCREEN
   0435 33            [ 6] 1114 	inc	sp
                           1115 ;src\Test.c:186: CopyToVRAM((uint) TILESET_FONT,BASE7,123*8);  
   0436 21 D8 03      [10] 1116 	ld	hl, #0x03d8
   0439 E5            [11] 1117 	push	hl
   043A 21 00 00      [10] 1118 	ld	hl, #0x0000
   043D E5            [11] 1119 	push	hl
   043E 21r33r00      [10] 1120 	ld	hl, #_TILESET_FONT
   0441 E5            [11] 1121 	push	hl
   0442 CDr00r00      [17] 1122 	call	_CopyToVRAM
   0445 21 06 00      [10] 1123 	ld	hl, #6
   0448 39            [11] 1124 	add	hl, sp
   0449 F9            [ 6] 1125 	ld	sp, hl
                           1126 ;src\Test.c:188: VPRINT(24,23,"SCREEN 1");
   044A 21r6Dr04      [10] 1127 	ld	hl, #___str_2
   044D E5            [11] 1128 	push	hl
   044E 11 18 17      [10] 1129 	ld	de, #0x1718
   0451 D5            [11] 1130 	push	de
   0452 CDr00r00      [17] 1131 	call	_VPRINT
   0455 F1            [10] 1132 	pop	af
   0456 F1            [10] 1133 	pop	af
                           1134 ;src\Test.c:190: test();
   0457 CDr35r05      [17] 1135 	call	_test
                           1136 ;src\Test.c:192: VPRINT(0,22,"Press any key");
   045A 21r76r04      [10] 1137 	ld	hl, #___str_3
   045D E5            [11] 1138 	push	hl
   045E 3E 16         [ 7] 1139 	ld	a, #0x16
   0460 F5            [11] 1140 	push	af
   0461 33            [ 6] 1141 	inc	sp
   0462 AF            [ 4] 1142 	xor	a, a
   0463 F5            [11] 1143 	push	af
   0464 33            [ 6] 1144 	inc	sp
   0465 CDr00r00      [17] 1145 	call	_VPRINT
   0468 F1            [10] 1146 	pop	af
   0469 F1            [10] 1147 	pop	af
                           1148 ;src\Test.c:193: inkey();  
                           1149 ;src\Test.c:195: return;
                           1150 ;src\Test.c:196: }
   046A C3r0Br04      [10] 1151 	jp  _inkey
   046D                    1152 ___str_2:
   046D 53 43 52 45 45 4E  1153 	.ascii "SCREEN 1"
        20 31
   0475 00                 1154 	.db 0x00
   0476                    1155 ___str_3:
   0476 50 72 65 73 73 20  1156 	.ascii "Press any key"
        61 6E 79 20 6B 65
        79
   0483 00                 1157 	.db 0x00
                           1158 ;src\Test.c:200: void test_SC2()
                           1159 ;	---------------------------------
                           1160 ; Function test_SC2
                           1161 ; ---------------------------------
   0484                    1162 _test_SC2::
                           1163 ;src\Test.c:202: COLOR(15,4,14);    
   0484 11 04 0E      [10] 1164 	ld	de, #0x0e04
   0487 D5            [11] 1165 	push	de
   0488 3E 0F         [ 7] 1166 	ld	a, #0x0f
   048A F5            [11] 1167 	push	af
   048B 33            [ 6] 1168 	inc	sp
   048C CDr00r00      [17] 1169 	call	_COLOR
   048F F1            [10] 1170 	pop	af
   0490 33            [ 6] 1171 	inc	sp
                           1172 ;src\Test.c:203: SCREEN(2);
   0491 3E 02         [ 7] 1173 	ld	a, #0x02
   0493 F5            [11] 1174 	push	af
   0494 33            [ 6] 1175 	inc	sp
   0495 CDr00r00      [17] 1176 	call	_SCREEN
   0498 33            [ 6] 1177 	inc	sp
                           1178 ;src\Test.c:204: FillVRAM(BASE10,0x800,32);
   0499 3E 20         [ 7] 1179 	ld	a, #0x20
   049B F5            [11] 1180 	push	af
   049C 33            [ 6] 1181 	inc	sp
   049D 21 00 08      [10] 1182 	ld	hl, #0x0800
   04A0 E5            [11] 1183 	push	hl
   04A1 26 18         [ 7] 1184 	ld	h, #0x18
   04A3 E5            [11] 1185 	push	hl
   04A4 CDr00r00      [17] 1186 	call	_FillVRAM
   04A7 F1            [10] 1187 	pop	af
                           1188 ;src\Test.c:207: CopyToVRAM((uint) TILESET_FONT,BASE12,123*8);
   04A8 33            [ 6] 1189 	inc	sp
   04A9 21 D8 03      [10] 1190 	ld	hl,#0x03d8
   04AC E3            [19] 1191 	ex	(sp),hl
   04AD 21 00 00      [10] 1192 	ld	hl, #0x0000
   04B0 E5            [11] 1193 	push	hl
   04B1 21r33r00      [10] 1194 	ld	hl, #_TILESET_FONT
   04B4 E5            [11] 1195 	push	hl
   04B5 CDr00r00      [17] 1196 	call	_CopyToVRAM
   04B8 21 06 00      [10] 1197 	ld	hl, #6
   04BB 39            [11] 1198 	add	hl, sp
   04BC F9            [ 6] 1199 	ld	sp, hl
                           1200 ;src\Test.c:208: CopyToVRAM((uint) TILESET_FONT,BASE12+BANK1,123*8);
   04BD 21 D8 03      [10] 1201 	ld	hl, #0x03d8
   04C0 E5            [11] 1202 	push	hl
   04C1 21 00 08      [10] 1203 	ld	hl, #0x0800
   04C4 E5            [11] 1204 	push	hl
   04C5 21r33r00      [10] 1205 	ld	hl, #_TILESET_FONT
   04C8 E5            [11] 1206 	push	hl
   04C9 CDr00r00      [17] 1207 	call	_CopyToVRAM
   04CC 21 06 00      [10] 1208 	ld	hl, #6
   04CF 39            [11] 1209 	add	hl, sp
   04D0 F9            [ 6] 1210 	ld	sp, hl
                           1211 ;src\Test.c:209: CopyToVRAM((uint) TILESET_FONT,BASE12+BANK2,123*8); 
   04D1 21 D8 03      [10] 1212 	ld	hl, #0x03d8
   04D4 E5            [11] 1213 	push	hl
   04D5 21 00 10      [10] 1214 	ld	hl, #0x1000
   04D8 E5            [11] 1215 	push	hl
   04D9 21r33r00      [10] 1216 	ld	hl, #_TILESET_FONT
   04DC E5            [11] 1217 	push	hl
   04DD CDr00r00      [17] 1218 	call	_CopyToVRAM
   04E0 21 06 00      [10] 1219 	ld	hl, #6
   04E3 39            [11] 1220 	add	hl, sp
   04E4 F9            [ 6] 1221 	ld	sp, hl
                           1222 ;src\Test.c:211: FillVRAM(BASE11,0x1800,0xF4); 
   04E5 3E F4         [ 7] 1223 	ld	a, #0xf4
   04E7 F5            [11] 1224 	push	af
   04E8 33            [ 6] 1225 	inc	sp
   04E9 21 00 18      [10] 1226 	ld	hl, #0x1800
   04EC E5            [11] 1227 	push	hl
   04ED 26 20         [ 7] 1228 	ld	h, #0x20
   04EF E5            [11] 1229 	push	hl
   04F0 CDr00r00      [17] 1230 	call	_FillVRAM
   04F3 F1            [10] 1231 	pop	af
                           1232 ;src\Test.c:213: VPRINT(24,23,"SCREEN 2");
   04F4 33            [ 6] 1233 	inc	sp
   04F5 21r18r05      [10] 1234 	ld	hl,#___str_4
   04F8 E3            [19] 1235 	ex	(sp),hl
   04F9 11 18 17      [10] 1236 	ld	de, #0x1718
   04FC D5            [11] 1237 	push	de
   04FD CDr00r00      [17] 1238 	call	_VPRINT
   0500 F1            [10] 1239 	pop	af
   0501 F1            [10] 1240 	pop	af
                           1241 ;src\Test.c:215: test();  
   0502 CDr35r05      [17] 1242 	call	_test
                           1243 ;src\Test.c:217: VPRINT(0,22,"Press a key to exit");
   0505 21r21r05      [10] 1244 	ld	hl, #___str_5
   0508 E5            [11] 1245 	push	hl
   0509 3E 16         [ 7] 1246 	ld	a, #0x16
   050B F5            [11] 1247 	push	af
   050C 33            [ 6] 1248 	inc	sp
   050D AF            [ 4] 1249 	xor	a, a
   050E F5            [11] 1250 	push	af
   050F 33            [ 6] 1251 	inc	sp
   0510 CDr00r00      [17] 1252 	call	_VPRINT
   0513 F1            [10] 1253 	pop	af
   0514 F1            [10] 1254 	pop	af
                           1255 ;src\Test.c:218: inkey();  
                           1256 ;src\Test.c:220: return;
                           1257 ;src\Test.c:221: }
   0515 C3r0Br04      [10] 1258 	jp  _inkey
   0518                    1259 ___str_4:
   0518 53 43 52 45 45 4E  1260 	.ascii "SCREEN 2"
        20 32
   0520 00                 1261 	.db 0x00
   0521                    1262 ___str_5:
   0521 50 72 65 73 73 20  1263 	.ascii "Press a key to exit"
        61 20 6B 65 79 20
        74 6F 20 65 78 69
        74
   0534 00                 1264 	.db 0x00
                           1265 ;src\Test.c:225: void test()
                           1266 ;	---------------------------------
                           1267 ; Function test
                           1268 ; ---------------------------------
   0535                    1269 _test::
                           1270 ;src\Test.c:230: VPRINT(0,0,text01);
   0535 21r06r00      [10] 1271 	ld	hl, #_text01
   0538 E5            [11] 1272 	push	hl
   0539 AF            [ 4] 1273 	xor	a, a
   053A F5            [11] 1274 	push	af
   053B 33            [ 6] 1275 	inc	sp
   053C AF            [ 4] 1276 	xor	a, a
   053D F5            [11] 1277 	push	af
   053E 33            [ 6] 1278 	inc	sp
   053F CDr00r00      [17] 1279 	call	_VPRINT
   0542 F1            [10] 1280 	pop	af
                           1281 ;src\Test.c:231: VPRINT(0,1,text02);
   0543 21r1Fr00      [10] 1282 	ld	hl, #_text02
   0546 E3            [19] 1283 	ex	(sp),hl
   0547 3E 01         [ 7] 1284 	ld	a, #0x01
   0549 F5            [11] 1285 	push	af
   054A 33            [ 6] 1286 	inc	sp
   054B AF            [ 4] 1287 	xor	a, a
   054C F5            [11] 1288 	push	af
   054D 33            [ 6] 1289 	inc	sp
   054E CDr00r00      [17] 1290 	call	_VPRINT
   0551 F1            [10] 1291 	pop	af
   0552 F1            [10] 1292 	pop	af
                           1293 ;src\Test.c:233: TwoSeconds();
   0553 CDr24r07      [17] 1294 	call	_TwoSeconds
                           1295 ;src\Test.c:235: VPRINT(0,3,">Test VPRINT");
   0556 21r3Er06      [10] 1296 	ld	hl, #___str_6
   0559 E5            [11] 1297 	push	hl
   055A 3E 03         [ 7] 1298 	ld	a, #0x03
   055C F5            [11] 1299 	push	af
   055D 33            [ 6] 1300 	inc	sp
   055E AF            [ 4] 1301 	xor	a, a
   055F F5            [11] 1302 	push	af
   0560 33            [ 6] 1303 	inc	sp
   0561 CDr00r00      [17] 1304 	call	_VPRINT
   0564 F1            [10] 1305 	pop	af
   0565 F1            [10] 1306 	pop	af
                           1307 ;src\Test.c:236: TwoSeconds();
   0566 CDr24r07      [17] 1308 	call	_TwoSeconds
                           1309 ;src\Test.c:237: VPRINT(3,4,"Alea iacta est");
   0569 21r4Br06      [10] 1310 	ld	hl, #___str_7
   056C E5            [11] 1311 	push	hl
   056D 11 03 04      [10] 1312 	ld	de, #0x0403
   0570 D5            [11] 1313 	push	de
   0571 CDr00r00      [17] 1314 	call	_VPRINT
   0574 F1            [10] 1315 	pop	af
   0575 F1            [10] 1316 	pop	af
                           1317 ;src\Test.c:238: TwoSeconds();
   0576 CDr24r07      [17] 1318 	call	_TwoSeconds
                           1319 ;src\Test.c:240: VPRINT(0,6,">Test VPRINTN [16chars]");
   0579 21r5Ar06      [10] 1320 	ld	hl, #___str_8
   057C E5            [11] 1321 	push	hl
   057D 3E 06         [ 7] 1322 	ld	a, #0x06
   057F F5            [11] 1323 	push	af
   0580 33            [ 6] 1324 	inc	sp
   0581 AF            [ 4] 1325 	xor	a, a
   0582 F5            [11] 1326 	push	af
   0583 33            [ 6] 1327 	inc	sp
   0584 CDr00r00      [17] 1328 	call	_VPRINT
   0587 F1            [10] 1329 	pop	af
   0588 F1            [10] 1330 	pop	af
                           1331 ;src\Test.c:241: TwoSeconds();
   0589 CDr24r07      [17] 1332 	call	_TwoSeconds
                           1333 ;src\Test.c:242: VPRINTN(2,7,"Gaudeamus igitur iuvenes dum sumus",16);
   058C 21 10 00      [10] 1334 	ld	hl, #0x0010
   058F E5            [11] 1335 	push	hl
   0590 21r72r06      [10] 1336 	ld	hl, #___str_9
   0593 E5            [11] 1337 	push	hl
   0594 11 02 07      [10] 1338 	ld	de, #0x0702
   0597 D5            [11] 1339 	push	de
   0598 CDr00r00      [17] 1340 	call	_VPRINTN
   059B 21 06 00      [10] 1341 	ld	hl, #6
   059E 39            [11] 1342 	add	hl, sp
   059F F9            [ 6] 1343 	ld	sp, hl
                           1344 ;src\Test.c:243: TwoSeconds();
   05A0 CDr24r07      [17] 1345 	call	_TwoSeconds
                           1346 ;src\Test.c:245: VPRINT(0,9,">test GetVRAMaddressByPosition()");
   05A3 21r95r06      [10] 1347 	ld	hl, #___str_10
   05A6 E5            [11] 1348 	push	hl
   05A7 3E 09         [ 7] 1349 	ld	a, #0x09
   05A9 F5            [11] 1350 	push	af
   05AA 33            [ 6] 1351 	inc	sp
   05AB AF            [ 4] 1352 	xor	a, a
   05AC F5            [11] 1353 	push	af
   05AD 33            [ 6] 1354 	inc	sp
   05AE CDr00r00      [17] 1355 	call	_VPRINT
   05B1 F1            [10] 1356 	pop	af
   05B2 F1            [10] 1357 	pop	af
                           1358 ;src\Test.c:246: TwoSeconds();
   05B3 CDr24r07      [17] 1359 	call	_TwoSeconds
                           1360 ;src\Test.c:247: vaddr = GetVRAMaddressByPosition(5,10);
   05B6 11 05 0A      [10] 1361 	ld	de, #0x0a05
   05B9 D5            [11] 1362 	push	de
   05BA CDr00r00      [17] 1363 	call	_GetVRAMaddressByPosition
   05BD F1            [10] 1364 	pop	af
                           1365 ;src\Test.c:248: VPrintString(vaddr,"col=5,line=10");
   05BE 01rB6r06      [10] 1366 	ld	bc, #___str_11+0
   05C1 C5            [11] 1367 	push	bc
   05C2 E5            [11] 1368 	push	hl
   05C3 CDr00r00      [17] 1369 	call	_VPrintString
   05C6 F1            [10] 1370 	pop	af
   05C7 F1            [10] 1371 	pop	af
                           1372 ;src\Test.c:249: TwoSeconds();
   05C8 CDr24r07      [17] 1373 	call	_TwoSeconds
                           1374 ;src\Test.c:254: VPRINT(0,12,">test VPrintString()");
   05CB 21rC4r06      [10] 1375 	ld	hl, #___str_12
   05CE E5            [11] 1376 	push	hl
   05CF 3E 0C         [ 7] 1377 	ld	a, #0x0c
   05D1 F5            [11] 1378 	push	af
   05D2 33            [ 6] 1379 	inc	sp
   05D3 AF            [ 4] 1380 	xor	a, a
   05D4 F5            [11] 1381 	push	af
   05D5 33            [ 6] 1382 	inc	sp
   05D6 CDr00r00      [17] 1383 	call	_VPRINT
   05D9 F1            [10] 1384 	pop	af
   05DA F1            [10] 1385 	pop	af
                           1386 ;src\Test.c:255: TwoSeconds(); 
   05DB CDr24r07      [17] 1387 	call	_TwoSeconds
                           1388 ;src\Test.c:257: VPrintString(vaddr,"Ad infinitum");
   05DE 21rD9r06      [10] 1389 	ld	hl, #___str_13
   05E1 E5            [11] 1390 	push	hl
   05E2 21 A3 19      [10] 1391 	ld	hl, #0x19a3
   05E5 E5            [11] 1392 	push	hl
   05E6 CDr00r00      [17] 1393 	call	_VPrintString
   05E9 F1            [10] 1394 	pop	af
   05EA F1            [10] 1395 	pop	af
                           1396 ;src\Test.c:258: TwoSeconds();  
   05EB CDr24r07      [17] 1397 	call	_TwoSeconds
                           1398 ;src\Test.c:260: VPRINT(0,15,">Test VPrintNumber(3,16,300,3)");
   05EE 21rE6r06      [10] 1399 	ld	hl, #___str_14
   05F1 E5            [11] 1400 	push	hl
   05F2 3E 0F         [ 7] 1401 	ld	a, #0x0f
   05F4 F5            [11] 1402 	push	af
   05F5 33            [ 6] 1403 	inc	sp
   05F6 AF            [ 4] 1404 	xor	a, a
   05F7 F5            [11] 1405 	push	af
   05F8 33            [ 6] 1406 	inc	sp
   05F9 CDr00r00      [17] 1407 	call	_VPRINT
   05FC F1            [10] 1408 	pop	af
   05FD F1            [10] 1409 	pop	af
                           1410 ;src\Test.c:261: TwoSeconds();
   05FE CDr24r07      [17] 1411 	call	_TwoSeconds
                           1412 ;src\Test.c:262: VPrintNumber(3,16,300,3);
   0601 3E 03         [ 7] 1413 	ld	a, #0x03
   0603 F5            [11] 1414 	push	af
   0604 33            [ 6] 1415 	inc	sp
   0605 21 2C 01      [10] 1416 	ld	hl, #0x012c
   0608 E5            [11] 1417 	push	hl
   0609 11 03 10      [10] 1418 	ld	de, #0x1003
   060C D5            [11] 1419 	push	de
   060D CDr00r00      [17] 1420 	call	_VPrintNumber
   0610 F1            [10] 1421 	pop	af
   0611 F1            [10] 1422 	pop	af
   0612 33            [ 6] 1423 	inc	sp
                           1424 ;src\Test.c:263: TwoSeconds();
   0613 CDr24r07      [17] 1425 	call	_TwoSeconds
                           1426 ;src\Test.c:266: VPRINT(0,18,">Test VPrintNum(vaddr,12345,5)");
   0616 21r05r07      [10] 1427 	ld	hl, #___str_15
   0619 E5            [11] 1428 	push	hl
   061A 3E 12         [ 7] 1429 	ld	a, #0x12
   061C F5            [11] 1430 	push	af
   061D 33            [ 6] 1431 	inc	sp
   061E AF            [ 4] 1432 	xor	a, a
   061F F5            [11] 1433 	push	af
   0620 33            [ 6] 1434 	inc	sp
   0621 CDr00r00      [17] 1435 	call	_VPRINT
   0624 F1            [10] 1436 	pop	af
   0625 F1            [10] 1437 	pop	af
                           1438 ;src\Test.c:267: TwoSeconds();
   0626 CDr24r07      [17] 1439 	call	_TwoSeconds
                           1440 ;src\Test.c:269: VPrintNum(vaddr,12345,5);
   0629 3E 05         [ 7] 1441 	ld	a, #0x05
   062B F5            [11] 1442 	push	af
   062C 33            [ 6] 1443 	inc	sp
   062D 21 39 30      [10] 1444 	ld	hl, #0x3039
   0630 E5            [11] 1445 	push	hl
   0631 21 63 1A      [10] 1446 	ld	hl, #0x1a63
   0634 E5            [11] 1447 	push	hl
   0635 CDr00r00      [17] 1448 	call	_VPrintNum
   0638 F1            [10] 1449 	pop	af
   0639 F1            [10] 1450 	pop	af
   063A 33            [ 6] 1451 	inc	sp
                           1452 ;src\Test.c:270: TwoSeconds();
                           1453 ;src\Test.c:277: }
   063B C3r24r07      [10] 1454 	jp  _TwoSeconds
   063E                    1455 ___str_6:
   063E 3E 54 65 73 74 20  1456 	.ascii ">Test VPRINT"
        56 50 52 49 4E 54
   064A 00                 1457 	.db 0x00
   064B                    1458 ___str_7:
   064B 41 6C 65 61 20 69  1459 	.ascii "Alea iacta est"
        61 63 74 61 20 65
        73 74
   0659 00                 1460 	.db 0x00
   065A                    1461 ___str_8:
   065A 3E 54 65 73 74 20  1462 	.ascii ">Test VPRINTN [16chars]"
        56 50 52 49 4E 54
        4E 20 5B 31 36 63
        68 61 72 73 5D
   0671 00                 1463 	.db 0x00
   0672                    1464 ___str_9:
   0672 47 61 75 64 65 61  1465 	.ascii "Gaudeamus igitur iuvenes dum sumus"
        6D 75 73 20 69 67
        69 74 75 72 20 69
        75 76 65 6E 65 73
        20 64 75 6D 20 73
        75 6D 75 73
   0694 00                 1466 	.db 0x00
   0695                    1467 ___str_10:
   0695 3E 74 65 73 74 20  1468 	.ascii ">test GetVRAMaddressByPosition()"
        47 65 74 56 52 41
        4D 61 64 64 72 65
        73 73 42 79 50 6F
        73 69 74 69 6F 6E
        28 29
   06B5 00                 1469 	.db 0x00
   06B6                    1470 ___str_11:
   06B6 63 6F 6C 3D 35 2C  1471 	.ascii "col=5,line=10"
        6C 69 6E 65 3D 31
        30
   06C3 00                 1472 	.db 0x00
   06C4                    1473 ___str_12:
   06C4 3E 74 65 73 74 20  1474 	.ascii ">test VPrintString()"
        56 50 72 69 6E 74
        53 74 72 69 6E 67
        28 29
   06D8 00                 1475 	.db 0x00
   06D9                    1476 ___str_13:
   06D9 41 64 20 69 6E 66  1477 	.ascii "Ad infinitum"
        69 6E 69 74 75 6D
   06E5 00                 1478 	.db 0x00
   06E6                    1479 ___str_14:
   06E6 3E 54 65 73 74 20  1480 	.ascii ">Test VPrintNumber(3,16,300,3)"
        56 50 72 69 6E 74
        4E 75 6D 62 65 72
        28 33 2C 31 36 2C
        33 30 30 2C 33 29
   0704 00                 1481 	.db 0x00
   0705                    1482 ___str_15:
   0705 3E 54 65 73 74 20  1483 	.ascii ">Test VPrintNum(vaddr,12345,5)"
        56 50 72 69 6E 74
        4E 75 6D 28 76 61
        64 64 72 2C 31 32
        33 34 35 2C 35 29
   0723 00                 1484 	.db 0x00
                           1485 ;src\Test.c:280: void TwoSeconds()
                           1486 ;	---------------------------------
                           1487 ; Function TwoSeconds
                           1488 ; ---------------------------------
   0724                    1489 _TwoSeconds::
                           1490 ;src\Test.c:282: WAIT(50*2);
   0724 21 64 00      [10] 1491 	ld	hl, #0x0064
   0727 E5            [11] 1492 	push	hl
   0728 CDr10r04      [17] 1493 	call	_WAIT
   072B F1            [10] 1494 	pop	af
                           1495 ;src\Test.c:283: }
   072C C9            [10] 1496 	ret
                           1497 	.area _CODE
                           1498 	.area _INITIALIZER
                           1499 	.area _CABS (ABS)
