ASxxxx Linker V03.00 + NoICE + sdld,  page 1.
Hexadecimal  [32-Bits]

Area                                    Addr        Size        Decimal Bytes (Attributes)
--------------------------------        ----        ----        ------- ----- ------------
.  .ABS.                            00000000    00000000 =           0. bytes (ABS,CON)

      Value  Global                              Global Defined In Module
      -----  --------------------------------   ------------------------
     00000000  .__.ABS.                           VDP_VPRINT
     00000000  l__CABS                         
     00000000  l__DABS                         
     00000000  l__GSFINAL                      
     00000000  l__GSINIT                       
     00000000  l__HEADER                       
     00000000  l__HOME                         
     00000000  l__INITIALIZED                  
     00000000  l__INITIALIZER                  
     00000000  s__CABS                         
     00000000  s__DABS                         
     00000000  s__HEADER                       
     00000000  s__HEADER0                      
     00000001  l__DATA                         
     0000001A  l__HEADER0                      
     00000A4C  l__CODE                         
     00004020  s__CODE                         
     0000C000  s__DATA                         
     0000C001  s__GSFINAL                      
     0000C001  s__GSINIT                       
     0000C001  s__HOME                         
     0000C001  s__INITIALIZED                  
     0000C001  s__INITIALIZER                  

ASxxxx Linker V03.00 + NoICE + sdld,  page 2.
Hexadecimal  [32-Bits]

Area                                    Addr        Size        Decimal Bytes (Attributes)
--------------------------------        ----        ----        ------- ----- ------------
_CODE                               00004020    00000A4C =        2636. bytes (REL,CON)

      Value  Global                              Global Defined In Module
      -----  --------------------------------   ------------------------
     00004020  _main                              Test
     00004026  _text01                            Test
     0000403F  _text02                            Test
     00004053  _TILESET_FONT                      Test
     0000442B  _inkey                             Test
     00004430  _WAIT                              Test
     00004441  _test_SC1                          Test
     000044A4  _test_SC2                          Test
     00004555  _test                              Test
     00004744  _TwoSeconds                        Test
     0000474D  _peek                              memory
     00004762  _wpeek                             memory
     00004777  _poke                              memory
     0000478C  _wpoke                             memory
     000047A8  _poke_block                        memory
     000047DE  _fillRAM                           memory
     000047FF  _SCREEN                            
     00004819  _COLOR                             
     00004839  _VPOKE                             
     00004850  _VPEEK                             
     00004865  _FillVRAM                          
     00004882  _CopyToVRAM                        
     000048A2  _CopyFromVRAM                      
     000048C2  _SetVDP                            
     000048D6  _GetVRAMaddressByPosition          VDP_VPRINT
     000048F5  _VPRINT                            VDP_VPRINT
     0000491B  _VPRINTN                           VDP_VPRINT
     00004951  _VPrintString                      VDP_VPRINT
     00004981  _VPrintNumber                      VDP_VPRINT
     000049AD  _VPrintNum                         VDP_VPRINT
     00004A1A  _num2Dec16                         VDP_VPRINT

ASxxxx Linker V03.00 + NoICE + sdld,  page 3.
Hexadecimal  [32-Bits]

Area                                    Addr        Size        Decimal Bytes (Attributes)
--------------------------------        ----        ----        ------- ----- ------------
_DATA                               0000C000    00000001 =           1. bytes (REL,CON)

      Value  Global                              Global Defined In Module
      -----  --------------------------------   ------------------------
     0000C000  _CSTATE                            VDP_VPRINT

ASxxxx Linker V03.00 + NoICE + sdld,  page 4.
Hexadecimal  [32-Bits]

Area                                    Addr        Size        Decimal Bytes (Attributes)
--------------------------------        ----        ----        ------- ----- ------------
_HEADER0                            00000000    0000001A =          26. bytes (ABS,CON)

      Value  Global                              Global Defined In Module
      -----  --------------------------------   ------------------------
ASxxxx Linker V03.00 + NoICE + sdld,  page 5.

Files Linked                              [ module(s) ]

build\Test.rel                            [ Test ]
libs\crt_MSX816kROM4000.rel               [  ]
libs\memory.rel                           [ memory ]
libs\VDP_TMS9918A_ROM.rel                 [  ]
libs\VDP_VPRINT.rel                       [ VDP_VPRINT ]

ASxxxx Linker V03.00 + NoICE + sdld,  page 6.

User Base Address Definitions

_CODE = 0x4020
_DATA = 0xc000

